; Function Attrs: null_pointer_is_valid sspstrong uwtable
define hidden void @Mate_restart(ptr noundef %0, ptr noundef captures(none) %1) local_unnamed_addr #0 {
  %3 = getelementptr inbounds nuw i8, ptr %1, i64 40
  %4 = load ptr, ptr %3, align 8
  %.not = icmp eq ptr %4, null
  br i1 %.not, label %10, label %5

5:                                                ; preds = %2
  %6 = getelementptr inbounds nuw i8, ptr %1, i64 24
  %7 = load i64, ptr %6, align 8
  %8 = getelementptr ptr, ptr %4, i64 %7
  %9 = load ptr, ptr %8, align 8
  %.not16 = icmp eq ptr %9, null
  br i1 %.not16, label %10, label %.thread19

10:                                               ; preds = %5, %2
  tail call fastcc void @Mate_ensure_buffer_stack(ptr noundef %1)
  %11 = getelementptr inbounds nuw i8, ptr %1, i64 8
  %12 = load ptr, ptr %11, align 8
  %13 = tail call ptr @Mate__create_buffer(ptr noundef %12, i32 noundef 16384, ptr noundef %1)
  %14 = load ptr, ptr %3, align 8
  %15 = getelementptr inbounds nuw i8, ptr %1, i64 24
  %16 = load i64, ptr %15, align 8
  %17 = getelementptr ptr, ptr %14, i64 %16
  store ptr %13, ptr %17, align 8
  %.pre = load ptr, ptr %3, align 8
  %.not17 = icmp eq ptr %.pre, null
  br i1 %.not17, label %.thread, label %.thread19

.thread:                                          ; preds = %10
  %18 = tail call ptr @__errno_location() #29
  %19 = load i32, ptr %18, align 4
  br label %Mate__flush_buffer.exit.i

.thread19:                                        ; preds = %5, %10
  %20 = phi ptr [ %.pre, %10 ], [ %4, %5 ]
  %21 = getelementptr inbounds nuw i8, ptr %1, i64 24
  %22 = load i64, ptr %21, align 8
  %23 = getelementptr ptr, ptr %20, i64 %22
  %24 = load ptr, ptr %23, align 8
  %25 = tail call ptr @__errno_location() #29
  %26 = load i32, ptr %25, align 4
  %.not.i.i = icmp eq ptr %24, null
  br i1 %.not.i.i, label %Mate__flush_buffer.exit.i, label %27

27:                                               ; preds = %.thread19
  %28 = getelementptr inbounds nuw i8, ptr %24, i64 28
  store i32 0, ptr %28, align 4
  %29 = getelementptr inbounds nuw i8, ptr %24, i64 8
  %30 = load ptr, ptr %29, align 8
  store i8 0, ptr %30, align 1
  %31 = load ptr, ptr %29, align 8
  %32 = getelementptr i8, ptr %31, i64 1
  store i8 0, ptr %32, align 1
  %33 = load ptr, ptr %29, align 8
  %34 = getelementptr inbounds nuw i8, ptr %24, i64 16
  store ptr %33, ptr %34, align 8
  %35 = getelementptr inbounds nuw i8, ptr %24, i64 40
  store i32 1, ptr %35, align 8
  %36 = getelementptr inbounds nuw i8, ptr %24, i64 56
  store i32 0, ptr %36, align 8
  %37 = load ptr, ptr %3, align 8
  %.not15.i.i = icmp eq ptr %37, null
  br i1 %.not15.i.i, label %Mate__flush_buffer.exit.i, label %38

38:                                               ; preds = %27
  %39 = load i64, ptr %21, align 8
  %40 = getelementptr ptr, ptr %37, i64 %39
  %41 = load ptr, ptr %40, align 8
  %42 = icmp eq ptr %24, %41
  br i1 %42, label %43, label %Mate__flush_buffer.exit.i

43:                                               ; preds = %38
  %44 = getelementptr inbounds nuw i8, ptr %41, i64 28
  %45 = load i32, ptr %44, align 4
  %46 = getelementptr inbounds nuw i8, ptr %1, i64 52
  store i32 %45, ptr %46, align 4
  %47 = load ptr, ptr %40, align 8
  %48 = getelementptr inbounds nuw i8, ptr %47, i64 16
  %49 = load ptr, ptr %48, align 8
  %50 = getelementptr inbounds nuw i8, ptr %1, i64 64
  store ptr %49, ptr %50, align 8
  %51 = getelementptr inbounds nuw i8, ptr %1, i64 128
  store ptr %49, ptr %51, align 8
  %52 = load ptr, ptr %40, align 8
  %53 = load ptr, ptr %52, align 8
  %54 = getelementptr inbounds nuw i8, ptr %1, i64 8
  store ptr %53, ptr %54, align 8
  %55 = load i8, ptr %49, align 1
  %56 = getelementptr inbounds nuw i8, ptr %1, i64 48
  store i8 %55, ptr %56, align 8
  br label %Mate__flush_buffer.exit.i

Mate__flush_buffer.exit.i:                        ; preds = %.thread, %43, %38, %27, %.thread19
  %57 = phi i32 [ %19, %.thread ], [ %26, %43 ], [ %26, %38 ], [ %26, %27 ], [ %26, %.thread19 ]
  %58 = phi ptr [ %18, %.thread ], [ %25, %43 ], [ %25, %38 ], [ %25, %27 ], [ %25, %.thread19 ]
  %59 = phi ptr [ null, %.thread ], [ %24, %43 ], [ %24, %38 ], [ %24, %27 ], [ null, %.thread19 ]
  store ptr %0, ptr %59, align 8
  %60 = getelementptr inbounds nuw i8, ptr %59, i64 52
  store i32 1, ptr %60, align 4
  %61 = load ptr, ptr %3, align 8
  %.not.i = icmp eq ptr %61, null
  br i1 %.not.i, label %67, label %62

62:                                               ; preds = %Mate__flush_buffer.exit.i
  %63 = getelementptr inbounds nuw i8, ptr %1, i64 24
  %64 = load i64, ptr %63, align 8
  %65 = getelementptr ptr, ptr %61, i64 %64
  %66 = load ptr, ptr %65, align 8
  br label %67

67:                                               ; preds = %62, %Mate__flush_buffer.exit.i
  %68 = phi ptr [ %66, %62 ], [ null, %Mate__flush_buffer.exit.i ]
  %.not14.i = icmp eq ptr %59, %68
  br i1 %.not14.i, label %Mate__init_buffer.exit, label %69

69:                                               ; preds = %67
  %70 = getelementptr inbounds nuw i8, ptr %59, i64 44
  store i32 1, ptr %70, align 4
  %71 = getelementptr inbounds nuw i8, ptr %59, i64 48
  store i32 0, ptr %71, align 8
  br label %Mate__init_buffer.exit

Mate__init_buffer.exit:                           ; preds = %67, %69
  %72 = getelementptr inbounds nuw i8, ptr %59, i64 36
  store i32 0, ptr %72, align 4
  store i32 %57, ptr %58, align 4
  %73 = load ptr, ptr %3, align 8
  %74 = getelementptr inbounds nuw i8, ptr %1, i64 24
  %75 = load i64, ptr %74, align 8
  %76 = getelementptr ptr, ptr %73, i64 %75
  %77 = load ptr, ptr %76, align 8
  %78 = getelementptr inbounds nuw i8, ptr %77, i64 28
  %79 = load i32, ptr %78, align 4
  %80 = getelementptr inbounds nuw i8, ptr %1, i64 52
  store i32 %79, ptr %80, align 4
  %81 = load ptr, ptr %76, align 8
  %82 = getelementptr inbounds nuw i8, ptr %81, i64 16
  %83 = load ptr, ptr %82, align 8
  %84 = getelementptr inbounds nuw i8, ptr %1, i64 64
  store ptr %83, ptr %84, align 8
  %85 = getelementptr inbounds nuw i8, ptr %1, i64 128
  store ptr %83, ptr %85, align 8
  %86 = load ptr, ptr %76, align 8
  %87 = load ptr, ptr %86, align 8
  %88 = getelementptr inbounds nuw i8, ptr %1, i64 8
  store ptr %87, ptr %88, align 8
  %89 = load i8, ptr %83, align 1
  %90 = getelementptr inbounds nuw i8, ptr %1, i64 48
  store i8 %89, ptr %90, align 8
  ret void
}